target datalayout = "e-m:e-p270:32:32-p271:32:32-p272:64:64-i64:64-i128:128-f80:128-n8:16:32:64-S128"
target triple = "x86_64-pc-linux-gnu"

%class.Dict = type { ptr, ptr, i32, i32, ptr, ptr }
%class.bucket = type { i32, i32, ptr }
%class.DictI = type { ptr, i32, i32, ptr, ptr }

@tty = external global ptr, align 8
@.str = private unnamed_addr constant [22 x i8] c"Dict@0x%016lx[%d] = {\00", align 1
@.str.4 = private unnamed_addr constant [21 x i8] c"(0x%016lx,0x%016lx),\00", align 1
@.str.5 = private unnamed_addr constant [2 x i8] c"}\00", align 1

; Function Attrs: mustprogress nounwind uwtable
define hidden void @_ZN5DictI5resetEPK4Dict(ptr noundef nonnull align 8 dereferenceable(32) %0, ptr noundef %1) #1 align 2 {
  %3 = alloca ptr, align 8
  %4 = alloca ptr, align 8
  store ptr %0, ptr %3, align 8
  store ptr %1, ptr %4, align 8
  %5 = load ptr, ptr %3, align 8
  %6 = load ptr, ptr %4, align 8
  %7 = getelementptr inbounds %class.DictI, ptr %5, i32 0, i32 0
  store ptr %6, ptr %7, align 8
  %8 = getelementptr inbounds %class.DictI, ptr %5, i32 0, i32 1
  store i32 -1, ptr %8, align 8
  %9 = getelementptr inbounds %class.DictI, ptr %5, i32 0, i32 2
  store i32 0, ptr %9, align 4
  call void @_ZN5DictIppEv(ptr noundef nonnull align 8 dereferenceable(32) %5)
  ret void
}

; Function Attrs: mustprogress nounwind uwtable
define hidden void @_ZN5DictIppEv(ptr noundef nonnull align 8 dereferenceable(32) %0) #1 align 2 {
  %2 = alloca ptr, align 8
  store ptr %0, ptr %2, align 8
  %3 = load ptr, ptr %2, align 8
  %4 = getelementptr inbounds %class.DictI, ptr %3, i32 0, i32 2
  %5 = load i32, ptr %4, align 4
  %6 = add i32 %5, -1
  store i32 %6, ptr %4, align 4
  %7 = icmp ne i32 %5, 0
  br i1 %7, label %8, label %48

8:                                                ; preds = %1
  %9 = getelementptr inbounds %class.DictI, ptr %3, i32 0, i32 0
  %10 = load ptr, ptr %9, align 8
  %11 = getelementptr inbounds %class.Dict, ptr %10, i32 0, i32 1
  %12 = load ptr, ptr %11, align 8
  %13 = getelementptr inbounds %class.DictI, ptr %3, i32 0, i32 1
  %14 = load i32, ptr %13, align 8
  %15 = zext i32 %14 to i64
  %16 = getelementptr inbounds %class.bucket, ptr %12, i64 %15
  %17 = getelementptr inbounds %class.bucket, ptr %16, i32 0, i32 2
  %18 = load ptr, ptr %17, align 8
  %19 = getelementptr inbounds %class.DictI, ptr %3, i32 0, i32 2
  %20 = load i32, ptr %19, align 4
  %21 = getelementptr inbounds %class.DictI, ptr %3, i32 0, i32 2
  %22 = load i32, ptr %21, align 4
  %23 = add i32 %20, %22
  %24 = zext i32 %23 to i64
  %25 = getelementptr inbounds ptr, ptr %18, i64 %24
  %26 = load ptr, ptr %25, align 8
  %27 = getelementptr inbounds %class.DictI, ptr %3, i32 0, i32 3
  store ptr %26, ptr %27, align 8
  %28 = getelementptr inbounds %class.DictI, ptr %3, i32 0, i32 0
  %29 = load ptr, ptr %28, align 8
  %30 = getelementptr inbounds %class.Dict, ptr %29, i32 0, i32 1
  %31 = load ptr, ptr %30, align 8
  %32 = getelementptr inbounds %class.DictI, ptr %3, i32 0, i32 1
  %33 = load i32, ptr %32, align 8
  %34 = zext i32 %33 to i64
  %35 = getelementptr inbounds %class.bucket, ptr %31, i64 %34
  %36 = getelementptr inbounds %class.bucket, ptr %35, i32 0, i32 2
  %37 = load ptr, ptr %36, align 8
  %38 = getelementptr inbounds %class.DictI, ptr %3, i32 0, i32 2
  %39 = load i32, ptr %38, align 4
  %40 = getelementptr inbounds %class.DictI, ptr %3, i32 0, i32 2
  %41 = load i32, ptr %40, align 4
  %42 = add i32 %39, %41
  %43 = add i32 %42, 1
  %44 = zext i32 %43 to i64
  %45 = getelementptr inbounds ptr, ptr %37, i64 %44
  %46 = load ptr, ptr %45, align 8
  %47 = getelementptr inbounds %class.DictI, ptr %3, i32 0, i32 4
  store ptr %46, ptr %47, align 8
  br label %120

48:                                               ; preds = %1
  br label %49

49:                                               ; preds = %73, %48
  %50 = getelementptr inbounds %class.DictI, ptr %3, i32 0, i32 1
  %51 = load i32, ptr %50, align 8
  %52 = add i32 %51, 1
  store i32 %52, ptr %50, align 8
  %53 = getelementptr inbounds %class.DictI, ptr %3, i32 0, i32 0
  %54 = load ptr, ptr %53, align 8
  %55 = getelementptr inbounds %class.Dict, ptr %54, i32 0, i32 2
  %56 = load i32, ptr %55, align 8
  %57 = icmp ult i32 %52, %56
  br i1 %57, label %58, label %117

58:                                               ; preds = %49
  %59 = getelementptr inbounds %class.DictI, ptr %3, i32 0, i32 0
  %60 = load ptr, ptr %59, align 8
  %61 = getelementptr inbounds %class.Dict, ptr %60, i32 0, i32 1
  %62 = load ptr, ptr %61, align 8
  %63 = getelementptr inbounds %class.DictI, ptr %3, i32 0, i32 1
  %64 = load i32, ptr %63, align 8
  %65 = zext i32 %64 to i64
  %66 = getelementptr inbounds %class.bucket, ptr %62, i64 %65
  %67 = getelementptr inbounds %class.bucket, ptr %66, i32 0, i32 0
  %68 = load i32, ptr %67, align 8
  %69 = getelementptr inbounds %class.DictI, ptr %3, i32 0, i32 2
  store i32 %68, ptr %69, align 4
  %70 = getelementptr inbounds %class.DictI, ptr %3, i32 0, i32 2
  %71 = load i32, ptr %70, align 4
  %72 = icmp ne i32 %71, 0
  br i1 %72, label %74, label %73

73:                                               ; preds = %58
  br label %49, !llvm.loop !15

74:                                               ; preds = %58
  %75 = getelementptr inbounds %class.DictI, ptr %3, i32 0, i32 2
  %76 = load i32, ptr %75, align 4
  %77 = add i32 %76, -1
  store i32 %77, ptr %75, align 4
  %78 = getelementptr inbounds %class.DictI, ptr %3, i32 0, i32 0
  %79 = load ptr, ptr %78, align 8
  %80 = getelementptr inbounds %class.Dict, ptr %79, i32 0, i32 1
  %81 = load ptr, ptr %80, align 8
  %82 = getelementptr inbounds %class.DictI, ptr %3, i32 0, i32 1
  %83 = load i32, ptr %82, align 8
  %84 = zext i32 %83 to i64
  %85 = getelementptr inbounds %class.bucket, ptr %81, i64 %84
  %86 = getelementptr inbounds %class.bucket, ptr %85, i32 0, i32 2
  %87 = load ptr, ptr %86, align 8
  %88 = getelementptr inbounds %class.DictI, ptr %3, i32 0, i32 2
  %89 = load i32, ptr %88, align 4
  %90 = getelementptr inbounds %class.DictI, ptr %3, i32 0, i32 2
  %91 = load i32, ptr %90, align 4
  %92 = add i32 %89, %91
  %93 = zext i32 %92 to i64
  %94 = getelementptr inbounds ptr, ptr %87, i64 %93
  %95 = load ptr, ptr %94, align 8
  %96 = getelementptr inbounds %class.DictI, ptr %3, i32 0, i32 3
  store ptr %95, ptr %96, align 8
  %97 = getelementptr inbounds %class.DictI, ptr %3, i32 0, i32 0
  %98 = load ptr, ptr %97, align 8
  %99 = getelementptr inbounds %class.Dict, ptr %98, i32 0, i32 1
  %100 = load ptr, ptr %99, align 8
  %101 = getelementptr inbounds %class.DictI, ptr %3, i32 0, i32 1
  %102 = load i32, ptr %101, align 8
  %103 = zext i32 %102 to i64
  %104 = getelementptr inbounds %class.bucket, ptr %100, i64 %103
  %105 = getelementptr inbounds %class.bucket, ptr %104, i32 0, i32 2
  %106 = load ptr, ptr %105, align 8
  %107 = getelementptr inbounds %class.DictI, ptr %3, i32 0, i32 2
  %108 = load i32, ptr %107, align 4
  %109 = getelementptr inbounds %class.DictI, ptr %3, i32 0, i32 2
  %110 = load i32, ptr %109, align 4
  %111 = add i32 %108, %110
  %112 = add i32 %111, 1
  %113 = zext i32 %112 to i64
  %114 = getelementptr inbounds ptr, ptr %106, i64 %113
  %115 = load ptr, ptr %114, align 8
  %116 = getelementptr inbounds %class.DictI, ptr %3, i32 0, i32 4
  store ptr %115, ptr %116, align 8
  br label %120

117:                                              ; preds = %49
  %118 = getelementptr inbounds %class.DictI, ptr %3, i32 0, i32 4
  store ptr null, ptr %118, align 8
  %119 = getelementptr inbounds %class.DictI, ptr %3, i32 0, i32 3
  store ptr null, ptr %119, align 8
  br label %120

120:                                              ; preds = %117, %74, %8
  ret void
}

; Function Attrs: mustprogress nounwind uwtable
define linkonce_odr hidden noundef i32 @_ZN5DictI4testEv(ptr noundef nonnull align 8 dereferenceable(32) %0) #1 comdat align 2 {
  %2 = alloca ptr, align 8
  store ptr %0, ptr %2, align 8
  %3 = load ptr, ptr %2, align 8
  %4 = getelementptr inbounds %class.DictI, ptr %3, i32 0, i32 1
  %5 = load i32, ptr %4, align 8
  %6 = getelementptr inbounds %class.DictI, ptr %3, i32 0, i32 0
  %7 = load ptr, ptr %6, align 8
  %8 = getelementptr inbounds %class.Dict, ptr %7, i32 0, i32 2
  %9 = load i32, ptr %8, align 8
  %10 = icmp ult i32 %5, %9
  %11 = zext i1 %10 to i32
  ret i32 %11
}

; Function Attrs: mustprogress nounwind uwtable
define linkonce_odr hidden noundef i64 @_Z3p2iPVKv(ptr noundef %0) #1 comdat {
  %2 = alloca ptr, align 8
  store ptr %0, ptr %2, align 8
  %3 = load ptr, ptr %2, align 8
  %4 = ptrtoint ptr %3 to i64
  ret i64 %4
}

; Function Attrs: mustprogress nounwind uwtable
define linkonce_odr hidden void @_ZN5DictIC2EPK4Dict(ptr noundef nonnull align 8 dereferenceable(32) %0, ptr noundef %1) unnamed_addr #1 comdat align 2 {
  %3 = alloca ptr, align 8
  %4 = alloca ptr, align 8
  store ptr %0, ptr %3, align 8
  store ptr %1, ptr %4, align 8
  %5 = load ptr, ptr %3, align 8
  %6 = load ptr, ptr %4, align 8
  call void @_ZN5DictI5resetEPK4Dict(ptr noundef nonnull align 8 dereferenceable(32) %5, ptr noundef %6)
  ret void
}

; Function Attrs: mustprogress nounwind uwtable
define hidden void @_ZN4Dict5printEv(ptr noundef nonnull align 8 dereferenceable(40) %0) #1 align 2 {
  %2 = alloca ptr, align 8
  %3 = alloca %class.DictI, align 8
  store ptr %0, ptr %2, align 8
  %4 = load ptr, ptr %2, align 8
  call void @_ZN5DictIC2EPK4Dict(ptr noundef nonnull align 8 dereferenceable(32) %3, ptr noundef %4)
  %5 = load ptr, ptr @tty, align 8
  %6 = call noundef i64 @_Z3p2iPVKv(ptr noundef %4)
  %7 = getelementptr inbounds %class.Dict, ptr %4, i32 0, i32 3
  %8 = load i32, ptr %7, align 4
  call void (ptr, ptr, ...) @_ZN12outputStream5printEPKcz(ptr noundef nonnull align 8 dereferenceable(56) %5, ptr noundef @.str, i64 noundef %6, i32 noundef %8)
  br label %9

9:                                                ; preds = %20, %1
  %10 = call noundef i32 @_ZN5DictI4testEv(ptr noundef nonnull align 8 dereferenceable(32) %3)
  %11 = icmp ne i32 %10, 0
  br i1 %11, label %12, label %21

12:                                               ; preds = %9
  %13 = load ptr, ptr @tty, align 8
  %14 = getelementptr inbounds %class.DictI, ptr %3, i32 0, i32 3
  %15 = load ptr, ptr %14, align 8
  %16 = call noundef i64 @_Z3p2iPVKv(ptr noundef %15)
  %17 = getelementptr inbounds %class.DictI, ptr %3, i32 0, i32 4
  %18 = load ptr, ptr %17, align 8
  %19 = call noundef i64 @_Z3p2iPVKv(ptr noundef %18)
  call void (ptr, ptr, ...) @_ZN12outputStream5printEPKcz(ptr noundef nonnull align 8 dereferenceable(56) %13, ptr noundef @.str.4, i64 noundef %16, i64 noundef %19)
  br label %20

20:                                               ; preds = %12
  call void @_ZN5DictIppEv(ptr noundef nonnull align 8 dereferenceable(32) %3)
  br label %9, !llvm.loop !14

21:                                               ; preds = %9
  %22 = load ptr, ptr @tty, align 8
  call void (ptr, ptr, ...) @_ZN12outputStream8print_crEPKcz(ptr noundef nonnull align 8 dereferenceable(56) %22, ptr noundef @.str.5)
  ret void
}