; Function Attrs: mustprogress nounwind uwtable
define hidden void @_ZN4Dict5printEv(ptr noundef nonnull align 8 dereferenceable(40) %0) local_unnamed_addr #0 align 2 {
  %2 = getelementptr inbounds i8, ptr %0, i64 16
  %3 = getelementptr inbounds i8, ptr %0, i64 8
  %4 = load i32, ptr %2, align 8
  %.not28 = icmp eq i32 %4, 0
  br i1 %.not28, label %_ZN5DictIC2EPK4Dict.exit, label %.lr.ph

.lr.ph:                                           ; preds = %1
  %5 = load ptr, ptr %3, align 8
  br label %8

6:                                                ; preds = %8
  %7 = add nuw i32 %9, 1
  %exitcond.not = icmp eq i32 %7, %4
  br i1 %exitcond.not, label %_ZN5DictIC2EPK4Dict.exit, label %8, !llvm.loop !14

8:                                                ; preds = %.lr.ph, %6
  %9 = phi i32 [ 0, %.lr.ph ], [ %7, %6 ]
  %10 = zext i32 %9 to i64
  %11 = getelementptr inbounds %class.bucket, ptr %5, i64 %10
  %12 = load i32, ptr %11, align 8
  %.not2.i.i.i = icmp eq i32 %12, 0
  br i1 %.not2.i.i.i, label %6, label %13, !llvm.loop !14

13:                                               ; preds = %8
  %14 = add i32 %12, -1
  %15 = getelementptr inbounds %class.bucket, ptr %5, i64 %10, i32 2
  %16 = load ptr, ptr %15, align 8
  %17 = shl i32 %14, 1
  %18 = zext i32 %17 to i64
  %19 = getelementptr inbounds ptr, ptr %16, i64 %18
  %20 = load ptr, ptr %19, align 8
  %21 = or disjoint i32 %17, 1
  %22 = zext i32 %21 to i64
  %23 = getelementptr inbounds ptr, ptr %16, i64 %22
  %24 = load ptr, ptr %23, align 8
  br label %_ZN5DictIC2EPK4Dict.exit

_ZN5DictIC2EPK4Dict.exit:                         ; preds = %6, %1, %13
  %25 = phi i32 [ %9, %13 ], [ 0, %1 ], [ %4, %6 ]
  %.sroa.22.0 = phi ptr [ %24, %13 ], [ null, %1 ], [ null, %6 ]
  %.sroa.9.1 = phi i32 [ %14, %13 ], [ -1, %1 ], [ 0, %6 ]
  %.sroa.16.0 = phi ptr [ %20, %13 ], [ null, %1 ], [ null, %6 ]
  %26 = load ptr, ptr @tty, align 8
  %27 = ptrtoint ptr %0 to i64
  %28 = getelementptr inbounds i8, ptr %0, i64 20
  %29 = load i32, ptr %28, align 4
  tail call void (ptr, ptr, ...) @_ZN12outputStream5printEPKcz(ptr noundef nonnull align 8 dereferenceable(56) %26, ptr noundef nonnull @.str, i64 noundef %27, i32 noundef %29) #11
  %30 = load i32, ptr %2, align 8
  %.not22 = icmp ult i32 %25, %30
  br i1 %.not22, label %.lr.ph27, label %._crit_edge

.lr.ph27:                                         ; preds = %_ZN5DictIC2EPK4Dict.exit, %_ZN5DictIppEv.exit
  %.sroa.16.126 = phi ptr [ %.sroa.16.2, %_ZN5DictIppEv.exit ], [ %.sroa.16.0, %_ZN5DictIC2EPK4Dict.exit ]
  %.sroa.4.025 = phi i32 [ %.sroa.4.1, %_ZN5DictIppEv.exit ], [ %25, %_ZN5DictIC2EPK4Dict.exit ]
  %.sroa.9.224 = phi i32 [ %.sroa.9.4, %_ZN5DictIppEv.exit ], [ %.sroa.9.1, %_ZN5DictIC2EPK4Dict.exit ]
  %.sroa.22.123 = phi ptr [ %.sroa.22.2, %_ZN5DictIppEv.exit ], [ %.sroa.22.0, %_ZN5DictIC2EPK4Dict.exit ]
  %31 = load ptr, ptr @tty, align 8
  %32 = ptrtoint ptr %.sroa.16.126 to i64
  %33 = ptrtoint ptr %.sroa.22.123 to i64
  tail call void (ptr, ptr, ...) @_ZN12outputStream5printEPKcz(ptr noundef nonnull align 8 dereferenceable(56) %31, ptr noundef nonnull @.str.4, i64 noundef %32, i64 noundef %33) #11
  %.not.i = icmp eq i32 %.sroa.9.224, 0
  br i1 %.not.i, label %.preheader.i.preheader, label %38

.preheader.i.preheader:                           ; preds = %.lr.ph27
  %34 = load i32, ptr %2, align 8
  %35 = add nuw i32 %.sroa.4.025, 1
  %36 = icmp ult i32 %35, %34
  br i1 %36, label %.lr.ph19, label %_ZN5DictIppEv.exit

.lr.ph19:                                         ; preds = %.preheader.i.preheader
  %37 = load ptr, ptr %3, align 8
  br label %53

38:                                               ; preds = %.lr.ph27
  %39 = add i32 %.sroa.9.224, -1
  %40 = load ptr, ptr %3, align 8
  %41 = zext i32 %.sroa.4.025 to i64
  %42 = getelementptr inbounds %class.bucket, ptr %40, i64 %41, i32 2
  %43 = load ptr, ptr %42, align 8
  %44 = shl i32 %39, 1
  %45 = zext i32 %44 to i64
  %46 = getelementptr inbounds ptr, ptr %43, i64 %45
  %47 = load ptr, ptr %46, align 8
  %48 = or disjoint i32 %44, 1
  %49 = zext i32 %48 to i64
  %50 = getelementptr inbounds ptr, ptr %43, i64 %49
  %51 = load ptr, ptr %50, align 8
  %.pre = load i32, ptr %2, align 8
  br label %_ZN5DictIppEv.exit

.preheader.i:                                     ; preds = %53
  %52 = add nuw i32 %54, 1
  %exitcond42.not = icmp eq i32 %52, %34
  br i1 %exitcond42.not, label %._crit_edge, label %53, !llvm.loop !14

53:                                               ; preds = %.lr.ph19, %.preheader.i
  %54 = phi i32 [ %35, %.lr.ph19 ], [ %52, %.preheader.i ]
  %55 = zext i32 %54 to i64
  %56 = getelementptr inbounds %class.bucket, ptr %37, i64 %55
  %57 = load i32, ptr %56, align 8
  %.not2.i = icmp eq i32 %57, 0
  br i1 %.not2.i, label %.preheader.i, label %58, !llvm.loop !14

58:                                               ; preds = %53
  %59 = add i32 %57, -1
  %60 = getelementptr inbounds %class.bucket, ptr %37, i64 %55, i32 2
  %61 = load ptr, ptr %60, align 8
  %62 = shl i32 %59, 1
  %63 = zext i32 %62 to i64
  %64 = getelementptr inbounds ptr, ptr %61, i64 %63
  %65 = load ptr, ptr %64, align 8
  %66 = or disjoint i32 %62, 1
  %67 = zext i32 %66 to i64
  %68 = getelementptr inbounds ptr, ptr %61, i64 %67
  %69 = load ptr, ptr %68, align 8
  br label %_ZN5DictIppEv.exit

_ZN5DictIppEv.exit:                               ; preds = %.preheader.i.preheader, %38, %58
  %70 = phi i32 [ %34, %58 ], [ %.pre, %38 ], [ %34, %.preheader.i.preheader ]
  %.sroa.22.2 = phi ptr [ %69, %58 ], [ %51, %38 ], [ null, %.preheader.i.preheader ]
  %.sroa.9.4 = phi i32 [ %59, %58 ], [ %39, %38 ], [ -1, %.preheader.i.preheader ]
  %.sroa.4.1 = phi i32 [ %54, %58 ], [ %.sroa.4.025, %38 ], [ %35, %.preheader.i.preheader ]
  %.sroa.16.2 = phi ptr [ %65, %58 ], [ %47, %38 ], [ null, %.preheader.i.preheader ]
  %.not = icmp ult i32 %.sroa.4.1, %70
  br i1 %.not, label %.lr.ph27, label %._crit_edge, !llvm.loop !15

._crit_edge:                                      ; preds = %_ZN5DictIppEv.exit, %.preheader.i, %_ZN5DictIC2EPK4Dict.exit
  %71 = load ptr, ptr @tty, align 8
  tail call void (ptr, ptr, ...) @_ZN12outputStream8print_crEPKcz(ptr noundef nonnull align 8 dereferenceable(56) %71, ptr noundef nonnull @.str.5) #11
  ret void
}